(dp0
S'METTS MARK'
p1
(dp2
S'to_messages'
p3
I807
sS'deferral_payments'
p4
I0
sS'expenses'
p5
I94299
sS'poi'
p6
I00
sS'stock_ratio'
p7
F0.37682968459155347
sS'deferred_income'
p8
I0
sS'email_address'
p9
S'mark.metts@enron.com'
p10
sS'long_term_incentive'
p11
S'NaN'
p12
sS'restricted_stock_deferred'
p13
g12
sS'shared_receipt_with_poi'
p14
I702
sS'loan_advances'
p15
I0
sS'from_messages'
p16
I29
sS'other'
p17
I1740
sS'director_fees'
p18
g12
sS'bonus'
p19
I600000
sS'total_stock_value'
p20
I585062
sS'from_poi_to_this_person'
p21
I38
sS'normalized_payments'
p22
I967528
sS'from_this_person_to_poi'
p23
I1
sS'restricted_stock'
p24
I585062
sS'salary'
p25
I365788
sS'total_payments'
p26
I1061827
sS'exercised_stock_options'
p27
g12
sS'in_poi_percentage'
p28
F0.04708798017348203
sS'out_poi_percentage'
p29
F0.034482758620689655
ssS'BAXTER JOHN C'
p30
(dp31
g3
F0.0
sg4
I1295738
sg5
I11200
sg6
I00
sg7
F0.6502687994002222
sg8
I-1386055
sg9
g12
sg11
I1586055
sg13
g12
sg14
F0.0
sg15
I0
sg16
F0.0
sg17
I2660303
sg18
g12
sg19
I1200000
sg20
I10623258
sg21
F0.0
sg22
I5713460
sg23
F0.0
sg24
I3942714
sg25
I267102
sg26
I5634343
sg27
I6680544
sg28
F0.0
sg29
F0.0
ssS'ELLIOTT STEVEN'
p32
(dp33
g3
F0.0
sg4
I0
sg5
I78552
sg6
I00
sg7
F0.9259768653267869
sg8
I-400729
sg9
S'steven.elliott@enron.com'
p34
sg11
g12
sg13
g12
sg14
F0.0
sg15
I0
sg16
F0.0
sg17
I12961
sg18
g12
sg19
I350000
sg20
I6678735
sg21
F0.0
sg22
I533902
sg23
F0.0
sg24
I1788391
sg25
I170941
sg26
I211725
sg27
I4890344
sg28
F0.0
sg29
F0.0
ssS'CORDES WILLIAM R'
p35
(dp36
g3
I764
sg4
I0
sg5
I0
sg6
I00
sg7
F1.0
sg8
I0
sg9
S'bill.cordes@enron.com'
p37
sg11
g12
sg13
g12
sg14
I58
sg15
I0
sg16
I12
sg17
g12
sg18
g12
sg19
g12
sg20
I1038185
sg21
I10
sg22
F0.0
sg23
I0
sg24
I386335
sg25
g12
sg26
g12
sg27
I651850
sg28
F0.013089005235602094
sg29
F0.0
ssS'HANNON KEVIN P'
p38
(dp39
g3
I1045
sg4
I0
sg5
I34039
sg6
I01
sg7
F0.6546398600635746
sg8
I-3117011
sg9
S'kevin.hannon@enron.com'
p40
sg11
I1617011
sg13
g12
sg14
I1035
sg15
I0
sg16
I32
sg17
I11350
sg18
g12
sg19
I1500000
sg20
I6391065
sg21
I32
sg22
I3371654
sg23
I21
sg24
I853064
sg25
I243293
sg26
I288682
sg27
I5538001
sg28
F0.03062200956937799
sg29
F0.65625
ssS'MORDAUNT KRISTINA M'
p41
(dp42
g3
F0.0
sg4
I0
sg5
I35018
sg6
I00
sg7
F0.25998299281558673
sg8
I0
sg9
S'kristina.mordaunt@enron.com'
p43
sg11
g12
sg13
g12
sg14
F0.0
sg15
I0
sg16
F0.0
sg17
I1411
sg18
g12
sg19
I325000
sg20
I208510
sg21
F0.0
sg22
I593504
sg23
F0.0
sg24
I208510
sg25
I267093
sg26
I628522
sg27
g12
sg28
F0.0
sg29
F0.0
ssS'MEYER ROCKFORD G'
p44
(dp45
g3
I232
sg4
I1848227
sg5
I0
sg6
I00
sg7
F1.0
sg8
I0
sg9
S'rockford.meyer@enron.com'
p46
sg11
g12
sg13
g12
sg14
I22
sg15
I0
sg16
I28
sg17
g12
sg18
g12
sg19
g12
sg20
I955873
sg21
I0
sg22
I0
sg23
I0
sg24
I462384
sg25
g12
sg26
I1848227
sg27
I493489
sg28
F0.0
sg29
F0.0
ssS'MCMAHON JEFFREY'
p47
(dp48
g3
I2355
sg4
I0
sg5
I137108
sg6
I00
sg7
F0.2955914459788414
sg8
I0
sg9
S'jeffrey.mcmahon@enron.com'
p49
sg11
I694862
sg13
g12
sg14
I2228
sg15
I0
sg16
I48
sg17
I297353
sg18
g12
sg19
I2600000
sg20
I1662855
sg21
I58
sg22
I3962663
sg23
I26
sg24
I558801
sg25
I370448
sg26
I4099771
sg27
I1104054
sg28
F0.024628450106157114
sg29
F0.5416666666666666
ssS'HORTON STANLEY C'
p50
(dp51
g3
I2350
sg4
I3131860
sg5
I0
sg6
I00
sg7
F1.0
sg8
I0
sg9
S'stanley.horton@enron.com'
p52
sg11
g12
sg13
g12
sg14
I1074
sg15
I0
sg16
I1073
sg17
g12
sg18
g12
sg19
g12
sg20
I7256648
sg21
I44
sg22
I0
sg23
I15
sg24
I2046079
sg25
g12
sg26
I3131860
sg27
I5210569
sg28
F0.01872340425531915
sg29
F0.013979496738117428
ssS'PIPER GREGORY F'
p53
(dp54
g3
I1238
sg4
I1130036
sg5
I43057
sg6
I00
sg7
F0.5955313332327578
sg8
I-33333
sg9
S'greg.piper@enron.com'
p55
sg11
g12
sg13
I-409554
sg14
I742
sg15
I0
sg16
I222
sg17
I778
sg18
g12
sg19
I400000
sg20
I880290
sg21
I61
sg22
I597869
sg23
I48
sg24
I409554
sg25
I197091
sg26
I1737629
sg27
I880290
sg28
F0.049273021001615507
sg29
F0.21621621621621623
ssS'HUMPHREY GENE E'
p56
(dp57
g3
I128
sg4
I2964506
sg5
I4994
sg6
I00
sg7
F0.9458361577332761
sg8
I0
sg9
S'gene.humphrey@enron.com'
p58
sg11
g12
sg13
g12
sg14
I119
sg15
I0
sg16
I17
sg17
g12
sg18
g12
sg19
g12
sg20
I2282768
sg21
I10
sg22
I130724
sg23
I17
sg24
g12
sg25
I130724
sg26
I3100224
sg27
I2282768
sg28
F0.078125
sg29
F1.0
ssS'UMANOFF ADAM S'
p59
(dp60
g3
I111
sg4
I0
sg5
I53122
sg6
I00
sg7
F0.0
sg8
I0
sg9
S'adam.umanoff@enron.com'
p61
sg11
g12
sg13
g12
sg14
I41
sg15
I0
sg16
I18
sg17
g12
sg18
g12
sg19
I788750
sg20
g12
sg21
I12
sg22
I1077339
sg23
I0
sg24
g12
sg25
I288589
sg26
I1130461
sg27
g12
sg28
F0.10810810810810811
sg29
F0.0
ssS'BLACHMAN JEREMY M'
p62
(dp63
g3
I2475
sg4
I0
sg5
I84208
sg6
I00
sg7
F0.33080079210227037
sg8
I0
sg9
S'jeremy.blachman@enron.com'
p64
sg11
I831809
sg13
g12
sg14
I2326
sg15
I0
sg16
I14
sg17
I272
sg18
g12
sg19
I850000
sg20
I954354
sg21
I25
sg22
I1930627
sg23
I2
sg24
I189041
sg25
I248546
sg26
I2014835
sg27
I765313
sg28
F0.010101010101010102
sg29
F0.14285714285714285
ssS'SUNDE MARTIN'
p65
(dp66
g3
I2647
sg4
I0
sg5
I0
sg6
I00
sg7
F0.3114645903549008
sg8
I0
sg9
S'marty.sunde@enron.com'
p67
sg11
I476451
sg13
g12
sg14
I2565
sg15
I0
sg16
I38
sg17
I111122
sg18
g12
sg19
I700000
sg20
I698920
sg21
I37
sg22
I1545059
sg23
I13
sg24
I698920
sg25
I257486
sg26
I1545059
sg27
g12
sg28
F0.013978088401964487
sg29
F0.34210526315789475
ssS'GIBBS DANA R'
p68
(dp69
g3
I169
sg4
I504610
sg5
I0
sg6
I00
sg7
F0.8276568015589957
sg8
I0
sg9
S'dana.gibbs@enron.com'
p70
sg11
I461912
sg13
g12
sg14
I23
sg15
I0
sg16
I12
sg17
g12
sg18
g12
sg19
g12
sg20
I2218275
sg21
I0
sg22
I461912
sg23
I0
sg24
g12
sg25
g12
sg26
I966522
sg27
I2218275
sg28
F0.0
sg29
F0.0
ssS'LOWRY CHARLES P'
p71
(dp72
g3
F0.0
sg4
I0
sg5
I0
sg6
I00
sg7
F1.0
sg8
I0
sg9
g12
sg11
g12
sg13
I-153686
sg14
F0.0
sg15
I0
sg16
F0.0
sg17
g12
sg18
g12
sg19
g12
sg20
I372205
sg21
F0.0
sg22
F0.0
sg23
F0.0
sg24
I153686
sg25
g12
sg26
g12
sg27
I372205
sg28
F0.0
sg29
F0.0
ssS'COLWELL WESLEY'
p73
(dp74
g3
I1758
sg4
I27610
sg5
I16514
sg6
I01
sg7
F0.30510582366625827
sg8
I-144062
sg9
S'wes.colwell@enron.com'
p75
sg11
g12
sg13
g12
sg14
I1132
sg15
I0
sg16
I40
sg17
I101740
sg18
g12
sg19
I1200000
sg20
I698242
sg21
I240
sg22
I1590282
sg23
I11
sg24
I698242
sg25
I288542
sg26
I1490344
sg27
g12
sg28
F0.13651877133105803
sg29
F0.275
ssS'MULLER MARK S'
p76
(dp77
g3
I136
sg4
I842924
sg5
I0
sg6
I00
sg7
F0.3152057600076886
sg8
I-719000
sg9
S's..muller@enron.com'
p78
sg11
I1725545
sg13
g12
sg14
I114
sg15
I0
sg16
I16
sg17
I947
sg18
g12
sg19
I1100000
sg20
I1416848
sg21
I12
sg22
I3078146
sg23
I0
sg24
I360528
sg25
I251654
sg26
I3202070
sg27
I1056320
sg28
F0.08823529411764706
sg29
F0.0
ssS'JACKSON CHARLENE R'
p79
(dp80
g3
I258
sg4
I0
sg5
I10181
sg6
I00
sg7
F0.5729209427754025
sg8
I0
sg9
S'charlene.jackson@enron.com'
p81
sg11
g12
sg13
g12
sg14
I117
sg15
I0
sg16
I56
sg17
I2435
sg18
g12
sg19
I250000
sg20
I725735
sg21
I25
sg22
I540993
sg23
I19
sg24
I540672
sg25
I288558
sg26
I551174
sg27
I185063
sg28
F0.09689922480620156
sg29
F0.3392857142857143
ssS'WESTFAHL RICHARD K'
p82
(dp83
g3
F0.0
sg4
I0
sg5
I51870
sg6
I00
sg7
F0.3480395480992229
sg8
I-10800
sg9
S'dick.westfahl@enron.com'
p84
sg11
I256191
sg13
g12
sg14
F0.0
sg15
I0
sg16
F0.0
sg17
I401130
sg18
g12
sg19
g12
sg20
I384930
sg21
F0.0
sg22
I721065
sg23
F0.0
sg24
I384930
sg25
I63744
sg26
I762135
sg27
g12
sg28
F0.0
sg29
F0.0
ssS'WALTERS GARETH W'
p85
(dp86
g3
F0.0
sg4
I53625
sg5
I33785
sg6
I00
sg7
F1.0
sg8
I0
sg9
g12
sg11
g12
sg13
g12
sg14
F0.0
sg15
I0
sg16
F0.0
sg17
g12
sg18
g12
sg19
g12
sg20
I1030329
sg21
F0.0
sg22
I0
sg23
F0.0
sg24
g12
sg25
g12
sg26
I87410
sg27
I1030329
sg28
F0.0
sg29
F0.0
ssS'WALLS JR ROBERT H'
p87
(dp88
g3
I671
sg4
I0
sg5
I50936
sg6
I00
sg7
F0.7714292738661626
sg8
I0
sg9
S'rob.walls@enron.com'
p89
sg11
I540751
sg13
g12
sg14
I215
sg15
I0
sg16
I146
sg17
I2
sg18
g12
sg19
I850000
sg20
I5898997
sg21
I17
sg22
I1747844
sg23
I0
sg24
I1552453
sg25
I357091
sg26
I1798780
sg27
I4346544
sg28
F0.02533532041728763
sg29
F0.0
ssS'KITCHEN LOUISE'
p90
(dp91
g3
I8305
sg4
I0
sg5
I5774
sg6
I00
sg7
F0.13635928633199668
sg8
I0
sg9
S'louise.kitchen@enron.com'
p92
sg11
g12
sg13
g12
sg14
I3669
sg15
I0
sg16
I1728
sg17
I93925
sg18
g12
sg19
I3100000
sg20
I547143
sg21
I251
sg22
I3465367
sg23
I194
sg24
I466101
sg25
I271442
sg26
I3471141
sg27
I81042
sg28
F0.030222757375075255
sg29
F0.11226851851851852
ssS'CHAN RONNIE'
p93
(dp94
g3
F0.0
sg4
I0
sg5
I0
sg6
I00
sg7
S'NaN'
p95
sg8
I-98784
sg9
g12
sg11
g12
sg13
I-32460
sg14
F0.0
sg15
I0
sg16
F0.0
sg17
g12
sg18
I98784
sg19
g12
sg20
g12
sg21
F0.0
sg22
F0.0
sg23
F0.0
sg24
I32460
sg25
g12
sg26
g12
sg27
g12
sg28
F0.0
sg29
F0.0
ssS'BELFER ROBERT'
p96
(dp97
g3
F0.0
sg4
I0
sg5
I3285
sg6
I00
sg7
F0.0
sg8
I-102500
sg9
g12
sg11
g95
sg13
I-44093
sg14
F0.0
sg15
I0
sg16
F0.0
sg17
g95
sg18
I102500
sg19
g95
sg20
g95
sg21
F0.0
sg22
I102500
sg23
F0.0
sg24
I44093
sg25
g95
sg26
I3285
sg27
g95
sg28
F0.0
sg29
F0.0
ssS'SHANKMAN JEFFREY A'
p98
(dp99
g3
I3221
sg4
I0
sg5
I178979
sg6
I00
sg7
F0.42014125591726115
sg8
I0
sg9
S'jeffrey.shankman@enron.com'
p100
sg11
I554422
sg13
g12
sg14
I1730
sg15
I0
sg16
I2681
sg17
I1191
sg18
g12
sg19
I2000000
sg20
I2072035
sg21
I94
sg22
I2859723
sg23
I83
sg24
I630137
sg25
I304110
sg26
I3038702
sg27
I1441898
sg28
F0.029183483390251473
sg29
F0.030958597538232
ssS'WODRASKA JOHN'
p101
(dp102
g3
F0.0
sg4
I0
sg5
I0
sg6
I00
sg7
F0.0
sg8
I0
sg9
S'john.wodraska@enron.com'
p103
sg11
g12
sg13
g12
sg14
F0.0
sg15
I0
sg16
F0.0
sg17
I189583
sg18
g12
sg19
g12
sg20
g12
sg21
F0.0
sg22
I189583
sg23
F0.0
sg24
g12
sg25
g12
sg26
I189583
sg27
g12
sg28
F0.0
sg29
F0.0
ssS'BERGSIEKER RICHARD P'
p104
(dp105
g3
I383
sg4
I0
sg5
I59175
sg6
I00
sg7
F0.38671595677221765
sg8
I-485813
sg9
S'rick.bergsieker@enron.com'
p106
sg11
I180250
sg13
g12
sg14
I233
sg15
I0
sg16
I59
sg17
I427316
sg18
g12
sg19
I250000
sg20
I659249
sg21
I4
sg22
I1045488
sg23
I0
sg24
I659249
sg25
I187922
sg26
I618850
sg27
g12
sg28
F0.010443864229765013
sg29
F0.0
ssS'URQUHART JOHN A'
p107
(dp108
g3
F0.0
sg4
I0
sg5
I228656
sg6
I00
sg7
F0.0
sg8
I-36666
sg9
g12
sg11
g12
sg13
g12
sg14
F0.0
sg15
I0
sg16
F0.0
sg17
g12
sg18
I36666
sg19
g12
sg20
g12
sg21
F0.0
sg22
I36666
sg23
F0.0
sg24
g12
sg25
g12
sg26
I228656
sg27
g12
sg28
F0.0
sg29
F0.0
ssS'BIBI PHILIPPE A'
p109
(dp110
g3
I1607
sg4
I0
sg5
I38559
sg6
I00
sg7
F0.47855898880049835
sg8
I0
sg9
S'philippe.bibi@enron.com'
p111
sg11
I369721
sg13
g12
sg14
I1336
sg15
I0
sg16
I40
sg17
I425688
sg18
g12
sg19
I1000000
sg20
I1843816
sg21
I23
sg22
I2009034
sg23
I8
sg24
I378082
sg25
I213625
sg26
I2047593
sg27
I1465734
sg28
F0.01431238332296204
sg29
F0.2
ssS'RIEKER PAULA H'
p112
(dp113
g3
I1328
sg4
I214678
sg5
I33271
sg6
I01
sg7
F0.6685928897108679
sg8
I-100000
sg9
S'paula.rieker@enron.com'
p114
sg11
g12
sg13
g12
sg14
I1258
sg15
I0
sg16
I82
sg17
I1950
sg18
g12
sg19
I700000
sg20
I1918887
sg21
I35
sg22
I951151
sg23
I48
sg24
I283649
sg25
I249201
sg26
I1099100
sg27
I1635238
sg28
F0.02635542168674699
sg29
F0.5853658536585366
ssS'WHALEY DAVID A'
p115
(dp116
g3
F0.0
sg4
I0
sg5
I0
sg6
I00
sg7
F1.0
sg8
I0
sg9
g12
sg11
g12
sg13
g12
sg14
F0.0
sg15
I0
sg16
F0.0
sg17
g12
sg18
g12
sg19
g12
sg20
I98718
sg21
F0.0
sg22
F0.0
sg23
F0.0
sg24
g12
sg25
g12
sg26
g12
sg27
I98718
sg28
F0.0
sg29
F0.0
ssS'BECK SALLY W'
p117
(dp118
g3
I7315
sg4
I0
sg5
I37172
sg6
I00
sg7
F0.11912681735816312
sg8
I0
sg9
S'sally.beck@enron.com'
p119
sg11
g12
sg13
g12
sg14
I2639
sg15
I0
sg16
I4343
sg17
I566
sg18
g12
sg19
I700000
sg20
I126027
sg21
I144
sg22
I931896
sg23
I386
sg24
I126027
sg25
I231330
sg26
I969068
sg27
g12
sg28
F0.01968557758031442
sg29
F0.08887865530739121
ssS'HAUG DAVID L'
p120
(dp121
g3
I573
sg4
I0
sg5
I475
sg6
I00
sg7
F1.0
sg8
I0
sg9
S'david.haug@enron.com'
p122
sg11
g12
sg13
g12
sg14
I471
sg15
I0
sg16
I19
sg17
g12
sg18
g12
sg19
g12
sg20
I2217299
sg21
I4
sg22
I0
sg23
I7
sg24
I2217299
sg25
g12
sg26
I475
sg27
g12
sg28
F0.006980802792321117
sg29
F0.3684210526315789
ssS'ECHOLS JOHN B'
p123
(dp124
g3
F0.0
sg4
I0
sg5
I21530
sg6
I00
sg7
F0.27418849455191746
sg8
I0
sg9
S'john.echols@enron.com'
p125
sg11
I2234774
sg13
g12
sg14
F0.0
sg15
I0
sg16
F0.0
sg17
I53775
sg18
g12
sg19
I200000
sg20
I1008941
sg21
F0.0
sg22
I2670794
sg23
F0.0
sg24
I407503
sg25
I182245
sg26
I2692324
sg27
I601438
sg28
F0.0
sg29
F0.0
ssS'MENDELSOHN JOHN'
p126
(dp127
g3
F0.0
sg4
I0
sg5
I148
sg6
I00
sg7
F0.0
sg8
I-103750
sg9
g12
sg11
g12
sg13
g12
sg14
F0.0
sg15
I0
sg16
F0.0
sg17
g12
sg18
I103750
sg19
g12
sg20
g12
sg21
F0.0
sg22
I103750
sg23
F0.0
sg24
g12
sg25
g12
sg26
I148
sg27
g12
sg28
F0.0
sg29
F0.0
ssS'HICKERSON GARY J'
p128
(dp129
g3
I1320
sg4
I0
sg5
I98849
sg6
I00
sg7
F0.18196706906601903
sg8
I0
sg9
S'gary.hickerson@enron.com'
p130
sg11
I69223
sg13
g12
sg14
I900
sg15
I0
sg16
I27
sg17
I1936
sg18
g12
sg19
I1700000
sg20
I441096
sg21
I40
sg22
I1982947
sg23
I1
sg24
I441096
sg25
I211788
sg26
I2081796
sg27
g12
sg28
F0.030303030303030304
sg29
F0.037037037037037035
ssS'CLINE KENNETH W'
p131
(dp132
g3
F0.0
sg4
I0
sg5
I0
sg6
I00
sg7
F1.0
sg8
I0
sg9
g12
sg11
g12
sg13
I-472568
sg14
F0.0
sg15
I0
sg16
F0.0
sg17
g12
sg18
g12
sg19
g12
sg20
I189518
sg21
F0.0
sg22
F0.0
sg23
F0.0
sg24
I662086
sg25
g12
sg26
g12
sg27
g12
sg28
F0.0
sg29
F0.0
ssS'LEWIS RICHARD'
p133
(dp134
g3
I952
sg4
I0
sg5
I0
sg6
I00
sg7
F1.0
sg8
I0
sg9
S'richard.lewis@enron.com'
p135
sg11
g12
sg13
g12
sg14
I739
sg15
I0
sg16
I26
sg17
g12
sg18
g12
sg19
g12
sg20
I850477
sg21
I10
sg22
F0.0
sg23
I0
sg24
g12
sg25
g12
sg26
g12
sg27
I850477
sg28
F0.01050420168067227
sg29
F0.0
ssS'HAYES ROBERT E'
p136
(dp137
g3
I504
sg4
I7961
sg5
I0
sg6
I00
sg7
F1.0
sg8
I0
sg9
S'robert.hayes@enron.com'
p138
sg11
g12
sg13
g12
sg14
I50
sg15
I0
sg16
I12
sg17
g12
sg18
g12
sg19
g12
sg20
I151418
sg21
I16
sg22
I0
sg23
I0
sg24
I151418
sg25
g12
sg26
I7961
sg27
g12
sg28
F0.031746031746031744
sg29
F0.0
ssS'MCCARTY DANNY J'
p139
(dp140
g3
I1433
sg4
I0
sg5
I0
sg6
I00
sg7
F1.0
sg8
I0
sg9
S'danny.mccarty@enron.com'
p141
sg11
g12
sg13
g12
sg14
I508
sg15
I0
sg16
I215
sg17
g12
sg18
g12
sg19
g12
sg20
I758931
sg21
I25
sg22
F0.0
sg23
I2
sg24
I94556
sg25
g12
sg26
g12
sg27
I664375
sg28
F0.017445917655268667
sg29
F0.009302325581395349
ssS'KOPPER MICHAEL J'
p142
(dp143
g3
F0.0
sg4
I0
sg5
I118134
sg6
I01
sg7
F0.2798775965972536
sg8
I0
sg9
S'michael.kopper@enron.com'
p144
sg11
I602671
sg13
g12
sg14
F0.0
sg15
I0
sg16
F0.0
sg17
I907502
sg18
g12
sg19
I800000
sg20
I985032
sg21
F0.0
sg22
I2534478
sg23
F0.0
sg24
I985032
sg25
I224305
sg26
I2652612
sg27
g12
sg28
F0.0
sg29
F0.0
ssS'LEFF DANIEL P'
p145
(dp146
g3
I2822
sg4
I0
sg5
I0
sg6
I00
sg7
F0.11919242411619317
sg8
I0
sg9
S'dan.leff@enron.com'
p147
sg11
I1387399
sg13
g12
sg14
I2672
sg15
I0
sg16
I63
sg17
I3083
sg18
g12
sg19
I1000000
sg20
I360528
sg21
I67
sg22
I2664228
sg23
I14
sg24
I360528
sg25
I273746
sg26
I2664228
sg27
g12
sg28
F0.02374202693125443
sg29
F0.2222222222222222
ssS'LAVORATO JOHN J'
p148
(dp149
g3
I7259
sg4
I0
sg5
I49537
sg6
I00
sg7
F0.3324340856972789
sg8
I0
sg9
S'john.lavorato@enron.com'
p150
sg11
I2035380
sg13
g12
sg14
I3962
sg15
I0
sg16
I2585
sg17
I1552
sg18
g12
sg19
I8000000
sg20
I5167144
sg21
I528
sg22
I10376220
sg23
I411
sg24
I1008149
sg25
I339288
sg26
I10425757
sg27
I4158995
sg28
F0.07273729163796666
sg29
F0.15899419729206962
ssS'BERBERIAN DAVID'
p151
(dp152
g3
F0.0
sg4
I0
sg5
I11892
sg6
I00
sg7
F0.9200862815189148
sg8
I0
sg9
S'david.berberian@enron.com'
p153
sg11
g12
sg13
g12
sg14
F0.0
sg15
I0
sg16
F0.0
sg17
g12
sg18
g12
sg19
g12
sg20
I2493616
sg21
F0.0
sg22
I216582
sg23
F0.0
sg24
I869220
sg25
I216582
sg26
I228474
sg27
I1624396
sg28
F0.0
sg29
F0.0
ssS'DETMERING TIMOTHY J'
p154
(dp155
g3
F0.0
sg4
I875307
sg5
I52255
sg6
I00
sg7
F0.6583705801741292
sg8
I-775241
sg9
S'timothy.detmering@enron.com'
p156
sg11
I415657
sg13
I-315068
sg14
F0.0
sg15
I0
sg16
F0.0
sg17
I1105
sg18
g12
sg19
I425000
sg20
I2027865
sg21
F0.0
sg22
I1052262
sg23
F0.0
sg24
I315068
sg25
I210500
sg26
I1204583
sg27
I2027865
sg28
F0.0
sg29
F0.0
ssS'WAKEHAM JOHN'
p157
(dp158
g3
F0.0
sg4
I0
sg5
I103773
sg6
I00
sg7
F0.0
sg8
I0
sg9
g12
sg11
g12
sg13
g12
sg14
F0.0
sg15
I0
sg16
F0.0
sg17
g12
sg18
I109298
sg19
g12
sg20
g12
sg21
F0.0
sg22
I109298
sg23
F0.0
sg24
g12
sg25
g12
sg26
I213071
sg27
g12
sg28
F0.0
sg29
F0.0
ssS'POWERS WILLIAM'
p159
(dp160
g3
I653
sg4
I0
sg5
I0
sg6
I00
sg7
g95
sg8
I-17500
sg9
S'ken.powers@enron.com'
p161
sg11
g12
sg13
g12
sg14
I12
sg15
I0
sg16
I26
sg17
g12
sg18
I17500
sg19
g12
sg20
g12
sg21
I0
sg22
F0.0
sg23
I0
sg24
g12
sg25
g12
sg26
g12
sg27
g12
sg28
F0.0
sg29
F0.0
ssS'GOLD JOSEPH'
p162
(dp163
g3
F0.0
sg4
I0
sg5
I0
sg6
I00
sg7
F0.29015924173373925
sg8
I0
sg9
S'joe.gold@enron.com'
p164
sg11
I304805
sg13
g12
sg14
F0.0
sg15
I0
sg16
F0.0
sg17
I819288
sg18
g12
sg19
I750000
sg20
I877611
sg21
F0.0
sg22
I2146973
sg23
F0.0
sg24
I441096
sg25
I272880
sg26
I2146973
sg27
I436515
sg28
F0.0
sg29
F0.0
ssS'BANNANTINE JAMES M'
p165
(dp166
g3
I566
sg4
I0
sg5
I56301
sg6
I00
sg7
F0.858393739726384
sg8
I-5104
sg9
S'james.bannantine@enron.com'
p167
sg11
g12
sg13
I-560222
sg14
I465
sg15
I0
sg16
I29
sg17
I864523
sg18
g12
sg19
g12
sg20
I5243487
sg21
I39
sg22
I865000
sg23
I0
sg24
I1757552
sg25
I477
sg26
I916197
sg27
I4046157
sg28
F0.06890459363957598
sg29
F0.0
ssS'DUNCAN JOHN H'
p168
(dp169
g3
F0.0
sg4
I0
sg5
I0
sg6
I00
sg7
F0.7838824903741128
sg8
I-25000
sg9
g12
sg11
g12
sg13
g12
sg14
F0.0
sg15
I0
sg16
F0.0
sg17
g12
sg18
I102492
sg19
g12
sg20
I371750
sg21
F0.0
sg22
I102492
sg23
F0.0
sg24
g12
sg25
g12
sg26
I77492
sg27
I371750
sg28
F0.0
sg29
F0.0
ssS'SHAPIRO RICHARD S'
p170
(dp171
g3
I15149
sg4
I0
sg5
I137767
sg6
I00
sg7
F0.5176265561558689
sg8
I0
sg9
S'richard.shapiro@enron.com'
p172
sg11
g12
sg13
g12
sg14
I4527
sg15
I0
sg16
I1215
sg17
I705
sg18
g12
sg19
I650000
sg20
I987001
sg21
I74
sg22
I919781
sg23
I65
sg24
I379164
sg25
I269076
sg26
I1057548
sg27
I607837
sg28
F0.0048848108786058485
sg29
F0.053497942386831275
ssS'SHERRIFF JOHN R'
p173
(dp174
g3
I3187
sg4
I0
sg5
I0
sg6
I00
sg7
F0.4191890273392128
sg8
I0
sg9
S'john.sherriff@enron.com'
p175
sg11
I554422
sg13
g12
sg14
I2103
sg15
I0
sg16
I92
sg17
I1852186
sg18
g12
sg19
I1500000
sg20
I3128982
sg21
I28
sg22
I4335388
sg23
I23
sg24
I1293424
sg25
I428780
sg26
I4335388
sg27
I1835558
sg28
F0.008785691873235017
sg29
F0.25
ssS'SHELBY REX'
p176
(dp177
g3
I225
sg4
I0
sg5
I22884
sg6
I01
sg7
F0.5567618353553108
sg8
I-4167
sg9
S'rex.shelby@enron.com'
p178
sg11
g12
sg13
g12
sg14
I91
sg15
I0
sg16
I39
sg17
I1573324
sg18
g12
sg19
I200000
sg20
I2493616
sg21
I13
sg22
I1985168
sg23
I14
sg24
I869220
sg25
I211844
sg26
I2003885
sg27
I1624396
sg28
F0.057777777777777775
sg29
F0.358974358974359
ssS'LEMAISTRE CHARLES'
p179
(dp180
g3
F0.0
sg4
I0
sg5
I0
sg6
I00
sg7
F0.7858804271275482
sg8
I-25000
sg9
g12
sg11
g12
sg13
g12
sg14
F0.0
sg15
I0
sg16
F0.0
sg17
g12
sg18
I112492
sg19
g12
sg20
I412878
sg21
F0.0
sg22
I112492
sg23
F0.0
sg24
g12
sg25
g12
sg26
I87492
sg27
I412878
sg28
F0.0
sg29
F0.0
ssS'DEFFNER JOSEPH M'
p181
(dp182
g3
I714
sg4
I0
sg5
I41626
sg6
I00
sg7
F0.12004744260816719
sg8
I0
sg9
S'joseph.deffner@enron.com'
p183
sg11
I335349
sg13
g12
sg14
I552
sg15
I0
sg16
I74
sg17
I25553
sg18
g12
sg19
I600000
sg20
I159211
sg21
I115
sg22
I1167023
sg23
I4
sg24
I141833
sg25
I206121
sg26
I1208649
sg27
I17378
sg28
F0.16106442577030813
sg29
F0.05405405405405406
ssS'KISHKILL JOSEPH G'
p184
(dp185
g3
F0.0
sg4
I0
sg5
I116335
sg6
I00
sg7
F0.6179077140342986
sg8
I-51042
sg9
S'joe.kishkill@enron.com'
p186
sg11
g12
sg13
g12
sg14
F0.0
sg15
I0
sg16
F0.0
sg17
I465357
sg18
g12
sg19
g12
sg20
I1034346
sg21
F0.0
sg22
I639603
sg23
F0.0
sg24
I1034346
sg25
I174246
sg26
I704896
sg27
g12
sg28
F0.0
sg29
F0.0
ssS'WHALLEY LAWRENCE G'
p187
(dp188
g3
I6019
sg4
I0
sg5
I57838
sg6
I00
sg7
F0.5682034920874376
sg8
I0
sg9
S'greg.whalley@enron.com'
p189
sg11
I808346
sg13
g12
sg14
I3920
sg15
I0
sg16
I556
sg17
I301026
sg18
g12
sg19
I3000000
sg20
I6079137
sg21
I186
sg22
I4619736
sg23
I24
sg24
I2796177
sg25
I510364
sg26
I4677574
sg27
I3282960
sg28
F0.03090214321315833
sg29
F0.04316546762589928
ssS'MCCONNELL MICHAEL S'
p190
(dp191
g3
I3329
sg4
I0
sg5
I81364
sg6
I00
sg7
F0.605567281142074
sg8
I0
sg9
S'mike.mcconnell@enron.com'
p192
sg11
I554422
sg13
g12
sg14
I2189
sg15
I0
sg16
I2742
sg17
I540
sg18
g12
sg19
I1100000
sg20
I3101279
sg21
I92
sg22
I2020000
sg23
I194
sg24
I1478269
sg25
I365038
sg26
I2101364
sg27
I1623010
sg28
F0.02763592670471613
sg29
F0.07075127644055434
ssS'PIRO JIM'
p193
(dp194
g3
I58
sg4
I0
sg5
I0
sg6
I00
sg7
F1.0
sg8
I0
sg9
S'jim.piro@enron.com'
p195
sg11
g12
sg13
g12
sg14
I3
sg15
I0
sg16
I16
sg17
g12
sg18
g12
sg19
g12
sg20
I47304
sg21
I0
sg22
F0.0
sg23
I1
sg24
I47304
sg25
g12
sg26
g12
sg27
g12
sg28
F0.0
sg29
F0.0625
ssS'DELAINEY DAVID W'
p196
(dp197
g3
I3093
sg4
I0
sg5
I86174
sg6
I01
sg7
F0.4367124428442209
sg8
I0
sg9
S'david.delainey@enron.com'
p198
sg11
I1294981
sg13
g12
sg14
I2097
sg15
I0
sg16
I3069
sg17
I1661
sg18
g12
sg19
I3000000
sg20
I3614261
sg21
I66
sg22
I4661805
sg23
I609
sg24
I1323148
sg25
I365163
sg26
I4747979
sg27
I2291113
sg28
F0.02133850630455868
sg29
F0.198435972629521
ssS'SULLIVAN-SHAKLOVITZ COLLEEN'
p199
(dp200
g3
F0.0
sg4
I181993
sg5
I0
sg6
I00
sg7
F0.6250177773659036
sg8
I0
sg9
g12
sg11
I554422
sg13
g12
sg14
F0.0
sg15
I0
sg16
F0.0
sg17
I162
sg18
g12
sg19
I100000
sg20
I1362375
sg21
F0.0
sg22
I817363
sg23
F0.0
sg24
g12
sg25
I162779
sg26
I999356
sg27
I1362375
sg28
F0.0
sg29
F0.0
ssS'WROBEL BRUCE'
p201
(dp202
g3
F0.0
sg4
I0
sg5
I0
sg6
I00
sg7
F1.0
sg8
I0
sg9
g12
sg11
g12
sg13
g12
sg14
F0.0
sg15
I0
sg16
F0.0
sg17
g12
sg18
g12
sg19
g12
sg20
I139130
sg21
F0.0
sg22
F0.0
sg23
F0.0
sg24
g12
sg25
g12
sg26
g12
sg27
I139130
sg28
F0.0
sg29
F0.0
ssS'LINDHOLM TOD A'
p203
(dp204
g3
F0.0
sg4
I204075
sg5
I57727
sg6
I00
sg7
F0.8330511826811063
sg8
I0
sg9
S'tod.lindholm@enron.com'
p205
sg11
I175000
sg13
g12
sg14
F0.0
sg15
I0
sg16
F0.0
sg17
I2630
sg18
g12
sg19
I200000
sg20
I3064208
sg21
F0.0
sg22
I614087
sg23
F0.0
sg24
I514847
sg25
I236457
sg26
I875889
sg27
I2549361
sg28
F0.0
sg29
F0.0
ssS'MEYER JEROME J'
p206
(dp207
g3
F0.0
sg4
I0
sg5
I2151
sg6
I00
sg7
F0.0
sg8
I-38346
sg9
g12
sg11
g12
sg13
g12
sg14
F0.0
sg15
I0
sg16
F0.0
sg17
g12
sg18
I38346
sg19
g12
sg20
g12
sg21
F0.0
sg22
I38346
sg23
F0.0
sg24
g12
sg25
g12
sg26
I2151
sg27
g12
sg28
F0.0
sg29
F0.0
ssS'LAY KENNETH L'
p208
(dp209
g3
I4273
sg4
I202911
sg5
I99832
sg6
I01
sg7
F0.6903093761828435
sg8
I-300000
sg9
S'kenneth.lay@enron.com'
p210
sg11
I3600000
sg13
g12
sg14
I2411
sg15
I81525000
sg16
I36
sg17
I10359729
sg18
g12
sg19
I7000000
sg20
I49110078
sg21
I123
sg22
I22032050
sg23
I16
sg24
I14761694
sg25
I1072321
sg26
I103559793
sg27
I34348384
sg28
F0.028785396676807865
sg29
F0.4444444444444444
ssS'BUTTS ROBERT H'
p211
(dp212
g3
F0.0
sg4
I0
sg5
I9410
sg6
I00
sg7
F0.23798788573681995
sg8
I-75000
sg9
S'bob.butts@enron.com'
p213
sg11
I175000
sg13
g12
sg14
F0.0
sg15
I0
sg16
F0.0
sg17
I150656
sg18
g12
sg19
I750000
sg20
I417619
sg21
F0.0
sg22
I1337172
sg23
F0.0
sg24
I417619
sg25
I261516
sg26
I1271582
sg27
g12
sg28
F0.0
sg29
F0.0
ssS'OLSON CINDY K'
p214
(dp215
g3
I1184
sg4
I77716
sg5
I63791
sg6
I00
sg7
F0.6883791198561957
sg8
I0
sg9
S'cindy.olson@enron.com'
p216
sg11
I100000
sg13
g12
sg14
I856
sg15
I0
sg16
I52
sg17
I972
sg18
g12
sg19
I750000
sg20
I2606763
sg21
I20
sg22
I1180050
sg23
I15
sg24
I969729
sg25
I329078
sg26
I1321557
sg27
I1637034
sg28
F0.016891891891891893
sg29
F0.28846153846153844
ssS'MCDONALD REBECCA'
p217
(dp218
g3
I894
sg4
I0
sg5
I0
sg6
I00
sg7
F1.0
sg8
I0
sg9
S'rebecca.mcdonald@enron.com'
p219
sg11
g12
sg13
g12
sg14
I720
sg15
I0
sg16
I13
sg17
g12
sg18
g12
sg19
g12
sg20
I1691366
sg21
I54
sg22
F0.0
sg23
I1
sg24
I934065
sg25
g12
sg26
g12
sg27
I757301
sg28
F0.06040268456375839
sg29
F0.07692307692307693
ssS'CUMBERLAND MICHAEL S'
p220
(dp221
g3
F0.0
sg4
I0
sg5
I22344
sg6
I00
sg7
F0.20928949868753724
sg8
I0
sg9
g12
sg11
I275000
sg13
g12
sg14
F0.0
sg15
I0
sg16
F0.0
sg17
I713
sg18
g12
sg19
I325000
sg20
I207940
sg21
F0.0
sg22
I785612
sg23
F0.0
sg24
I207940
sg25
I184899
sg26
I807956
sg27
g12
sg28
F0.0
sg29
F0.0
ssS'GAHN ROBERT S'
p222
(dp223
g3
F0.0
sg4
I73122
sg5
I50080
sg6
I00
sg7
F0.2904263503708187
sg8
I-1042
sg9
g12
sg11
g12
sg13
g12
sg14
F0.0
sg15
I0
sg16
F0.0
sg17
I76547
sg18
g12
sg19
I509870
sg20
I318607
sg21
F0.0
sg22
I778425
sg23
F0.0
sg24
I235370
sg25
I192008
sg26
I900585
sg27
I83237
sg28
F0.0
sg29
F0.0
ssS'MCCLELLAN GEORGE'
p224
(dp225
g3
I1744
sg4
I0
sg5
I228763
sg6
I00
sg7
F0.43824406653964354
sg8
I-125000
sg9
S'george.mcclellan@enron.com'
p226
sg11
g12
sg13
g12
sg14
I1469
sg15
I0
sg16
I49
sg17
I51587
sg18
g12
sg19
I900000
sg20
I947861
sg21
I52
sg22
I1215000
sg23
I0
sg24
I441096
sg25
I263413
sg26
I1318763
sg27
I506765
sg28
F0.02981651376146789
sg29
F0.0
ssS'HERMANN ROBERT J'
p227
(dp228
g3
F0.0
sg4
I0
sg5
I48357
sg6
I00
sg7
F0.3040783966765518
sg8
I-280000
sg9
S'robert.hermann@enron.com'
p229
sg11
I150000
sg13
g12
sg14
F0.0
sg15
I0
sg16
F0.0
sg17
I416441
sg18
g12
sg19
I700000
sg20
I668132
sg21
F0.0
sg22
I1529104
sg23
F0.0
sg24
I480632
sg25
I262663
sg26
I1297461
sg27
I187500
sg28
F0.0
sg29
F0.0
ssS'SCRIMSHAW MATTHEW'
p230
(dp231
g3
F0.0
sg4
I0
sg5
I0
sg6
I00
sg7
F1.0
sg8
I0
sg9
S'matthew.scrimshaw@enron.com'
p232
sg11
g12
sg13
g12
sg14
F0.0
sg15
I0
sg16
F0.0
sg17
g12
sg18
g12
sg19
g12
sg20
I759557
sg21
F0.0
sg22
F0.0
sg23
F0.0
sg24
g12
sg25
g12
sg26
g12
sg27
I759557
sg28
F0.0
sg29
F0.0
ssS'GATHMANN WILLIAM D'
p233
(dp234
g3
F0.0
sg4
I0
sg5
I0
sg6
I00
sg7
F1.0
sg8
I0
sg9
g12
sg11
g12
sg13
I-72419
sg14
F0.0
sg15
I0
sg16
F0.0
sg17
g12
sg18
g12
sg19
g12
sg20
I1945360
sg21
F0.0
sg22
F0.0
sg23
F0.0
sg24
I264013
sg25
g12
sg26
g12
sg27
I1753766
sg28
F0.0
sg29
F0.0
ssS'HAEDICKE MARK E'
p235
(dp236
g3
I4009
sg4
I2157527
sg5
I76169
sg6
I00
sg7
F0.23880661812392523
sg8
I-934484
sg9
S'mark.haedicke@enron.com'
p237
sg11
I983346
sg13
I-329825
sg14
I1847
sg15
I0
sg16
I1941
sg17
I52382
sg18
g12
sg19
I1150000
sg20
I803094
sg21
I180
sg22
I2559853
sg23
I61
sg24
I524169
sg25
I374125
sg26
I3859065
sg27
I608750
sg28
F0.04489897730107259
sg29
F0.03142709943328181
ssS'BOWEN JR RAYMOND M'
p238
(dp239
g3
I1858
sg4
I0
sg5
I65907
sg6
I01
sg7
F0.08823694150677211
sg8
I-833
sg9
S'raymond.bowen@enron.com'
p240
sg11
I974293
sg13
g12
sg14
I1593
sg15
I0
sg16
I27
sg17
I1621
sg18
g12
sg19
I1350000
sg20
I252055
sg21
I140
sg22
I2604515
sg23
I15
sg24
I252055
sg25
I278601
sg26
I2669589
sg27
g12
sg28
F0.07534983853606028
sg29
F0.5555555555555556
ssS'GILLIS JOHN'
p241
(dp242
g3
F0.0
sg4
I0
sg5
I0
sg6
I00
sg7
F1.0
sg8
I0
sg9
g12
sg11
g12
sg13
g12
sg14
F0.0
sg15
I0
sg16
F0.0
sg17
g12
sg18
g12
sg19
g12
sg20
I85641
sg21
F0.0
sg22
F0.0
sg23
F0.0
sg24
I75838
sg25
g12
sg26
g12
sg27
I9803
sg28
F0.0
sg29
F0.0
ssS'FITZGERALD JAY L'
p243
(dp244
g3
I936
sg4
I0
sg5
I23870
sg6
I00
sg7
F0.5382191159153887
sg8
I0
sg9
S'jay.fitzgerald@enron.com'
p245
sg11
I556416
sg13
g12
sg14
I723
sg15
I0
sg16
I16
sg17
I285414
sg18
g12
sg19
I350000
sg20
I1621236
sg21
I1
sg22
I1390987
sg23
I8
sg24
I956775
sg25
I199157
sg26
I1414857
sg27
I664461
sg28
F0.0010683760683760685
sg29
F0.5
ssS'MORAN MICHAEL P'
p246
(dp247
g3
I672
sg4
I0
sg5
I0
sg6
I00
sg7
F1.0
sg8
I0
sg9
S'michael.moran@enron.com'
p248
sg11
g12
sg13
g12
sg14
I127
sg15
I0
sg16
I19
sg17
g12
sg18
g12
sg19
g12
sg20
I221141
sg21
I0
sg22
F0.0
sg23
I0
sg24
I161602
sg25
g12
sg26
g12
sg27
I59539
sg28
F0.0
sg29
F0.0
ssS'REDMOND BRIAN L'
p249
(dp250
g3
I1671
sg4
I0
sg5
I14689
sg6
I00
sg7
F0.9878755463140609
sg8
I0
sg9
S'brian.redmond@enron.com'
p251
sg11
g12
sg13
g12
sg14
I1063
sg15
I0
sg16
I221
sg17
g12
sg18
g12
sg19
g12
sg20
I7890324
sg21
I204
sg22
I96840
sg23
I49
sg24
I381285
sg25
I96840
sg26
I111529
sg27
I7509039
sg28
F0.12208258527827648
sg29
F0.22171945701357465
ssS'BAZELIDES PHILIP J'
p252
(dp253
g3
F0.0
sg4
I684694
sg5
I0
sg6
I00
sg7
F0.901164058244037
sg8
I0
sg9
g12
sg11
I93750
sg13
g12
sg14
F0.0
sg15
I0
sg16
F0.0
sg17
I874
sg18
g12
sg19
g12
sg20
I1599641
sg21
F0.0
sg22
I175442
sg23
F0.0
sg24
g12
sg25
I80818
sg26
I860136
sg27
I1599641
sg28
F0.0
sg29
F0.0
ssS'BELDEN TIMOTHY N'
p254
(dp255
g3
I7991
sg4
I2144013
sg5
I17355
sg6
I01
sg7
F0.16369039943254643
sg8
I-2334434
sg9
S'tim.belden@enron.com'
p256
sg11
g12
sg13
g12
sg14
I5521
sg15
I0
sg16
I484
sg17
I210698
sg18
g12
sg19
I5249999
sg20
I1110705
sg21
I228
sg22
I5674696
sg23
I108
sg24
I157569
sg25
I213999
sg26
I5501630
sg27
I953136
sg28
F0.028532098610937303
sg29
F0.2231404958677686
ssS'DURAN WILLIAM D'
p257
(dp258
g3
I904
sg4
I0
sg5
I25785
sg6
I00
sg7
F0.4424860613290734
sg8
I0
sg9
S'w.duran@enron.com'
p259
sg11
I1105218
sg13
g12
sg14
I599
sg15
I0
sg16
I12
sg17
I1568
sg18
g12
sg19
I750000
sg20
I1640910
sg21
I106
sg22
I2067478
sg23
I3
sg24
I189041
sg25
I210692
sg26
I2093263
sg27
I1451869
sg28
F0.1172566371681416
sg29
F0.25
ssS'THORN TERENCE H'
p260
(dp261
g3
I266
sg4
I16586
sg5
I46145
sg6
I00
sg7
F0.8502215999313865
sg8
I0
sg9
S'terence.thorn@enron.com'
p262
sg11
I200000
sg13
g12
sg14
I73
sg15
I0
sg16
I41
sg17
I426629
sg18
g12
sg19
g12
sg20
I4817796
sg21
I0
sg22
I848722
sg23
I0
sg24
I365320
sg25
I222093
sg26
I911453
sg27
I4452476
sg28
F0.0
sg29
F0.0
ssS'FASTOW ANDREW S'
p263
(dp264
g3
F0.0
sg4
I0
sg5
I55921
sg6
I01
sg7
F0.3233973653671925
sg8
I-1386055
sg9
S'andrew.fastow@enron.com'
p265
sg11
I1736055
sg13
g12
sg14
F0.0
sg15
I0
sg16
F0.0
sg17
I277464
sg18
g12
sg19
I1300000
sg20
I1794412
sg21
F0.0
sg22
I3754217
sg23
F0.0
sg24
I1794412
sg25
I440698
sg26
I2424083
sg27
g12
sg28
F0.0
sg29
F0.0
ssS'FOY JOE'
p266
(dp267
g3
I57
sg4
I181755
sg5
I0
sg6
I00
sg7
F1.0
sg8
I0
sg9
S'tracy.foy@enron.com'
p268
sg11
g12
sg13
g12
sg14
I2
sg15
I0
sg16
I13
sg17
g12
sg18
g12
sg19
g12
sg20
I343434
sg21
I0
sg22
I0
sg23
I0
sg24
g12
sg25
g12
sg26
I181755
sg27
I343434
sg28
F0.0
sg29
F0.0
ssS'CALGER CHRISTOPHER F'
p269
(dp270
g3
I2598
sg4
I0
sg5
I35818
sg6
I01
sg7
F0.06326637570368764
sg8
I-262500
sg9
S'christopher.calger@enron.com'
p271
sg11
I375304
sg13
g12
sg14
I2188
sg15
I0
sg16
I144
sg17
I486
sg18
g12
sg19
I1250000
sg20
I126027
sg21
I199
sg22
I1865979
sg23
I25
sg24
I126027
sg25
I240189
sg26
I1639297
sg27
g12
sg28
F0.07659738260200154
sg29
F0.1736111111111111
ssS'RICE KENNETH D'
p272
(dp273
g3
I905
sg4
I0
sg5
I46950
sg6
I01
sg7
F0.8505005748909876
sg8
I-3504386
sg9
S'ken.rice@enron.com'
p274
sg11
I1617011
sg13
g12
sg14
I864
sg15
I0
sg16
I18
sg17
I174839
sg18
g12
sg19
I1750000
sg20
I22542539
sg21
I42
sg22
I3962486
sg23
I4
sg24
I2748364
sg25
I420636
sg26
I505050
sg27
I19794175
sg28
F0.04640883977900553
sg29
F0.2222222222222222
ssS'KAMINSKI WINCENTY J'
p275
(dp276
g3
I4607
sg4
I0
sg5
I83585
sg6
I00
sg7
F0.4931290428354249
sg8
I0
sg9
S'vince.kaminski@enron.com'
p277
sg11
I323466
sg13
g12
sg14
I583
sg15
I0
sg16
I14368
sg17
I4669
sg18
g12
sg19
I400000
sg20
I976037
sg21
I41
sg22
I1003236
sg23
I171
sg24
I126027
sg25
I275101
sg26
I1086821
sg27
I850010
sg28
F0.008899500759713479
sg29
F0.011901447661469933
ssS'LOCKHART EUGENE E'
p278
(dp279
g3
F0.0
sg4
I0
sg5
I0
sg6
I00
sg7
g95
sg8
I0
sg9
g12
sg11
g12
sg13
g12
sg14
F0.0
sg15
I0
sg16
F0.0
sg17
g12
sg18
g12
sg19
g12
sg20
g12
sg21
F0.0
sg22
F0.0
sg23
F0.0
sg24
g12
sg25
g12
sg26
g12
sg27
g12
sg28
F0.0
sg29
F0.0
ssS'COX DAVID'
p280
(dp281
g3
I102
sg4
I0
sg5
I27861
sg6
I00
sg7
F0.3077672525404942
sg8
I-41250
sg9
S'chip.cox@enron.com'
p282
sg11
g12
sg13
g12
sg14
I71
sg15
I0
sg16
I33
sg17
I494
sg18
g12
sg19
I800000
sg20
I495633
sg21
I0
sg22
I1114782
sg23
I4
sg24
I378082
sg25
I314288
sg26
I1101393
sg27
I117551
sg28
F0.0
sg29
F0.12121212121212122
ssS'OVERDYKE JR JERE C'
p283
(dp284
g3
F0.0
sg4
I0
sg5
I18834
sg6
I00
sg7
F0.9693637248663436
sg8
I0
sg9
S'jere.overdyke@enron.com'
p285
sg11
I135836
sg13
g12
sg14
F0.0
sg15
I0
sg16
F0.0
sg17
I176
sg18
g12
sg19
g12
sg20
I7307594
sg21
F0.0
sg22
I230953
sg23
F0.0
sg24
I2041016
sg25
I94941
sg26
I249787
sg27
I5266578
sg28
F0.0
sg29
F0.0
ssS'PEREIRA PAULO V. FERRAZ'
p286
(dp287
g3
F0.0
sg4
I0
sg5
I27942
sg6
I00
sg7
F0.0
sg8
I-101250
sg9
g12
sg11
g12
sg13
g12
sg14
F0.0
sg15
I0
sg16
F0.0
sg17
g12
sg18
I101250
sg19
g12
sg20
g12
sg21
F0.0
sg22
I101250
sg23
F0.0
sg24
g12
sg25
g12
sg26
I27942
sg27
g12
sg28
F0.0
sg29
F0.0
ssS'STABLER FRANK'
p288
(dp289
g3
F0.0
sg4
I0
sg5
I16514
sg6
I00
sg7
F0.31837974948158626
sg8
I0
sg9
S'frank.stabler@enron.com'
p290
sg11
g12
sg13
g12
sg14
F0.0
sg15
I0
sg16
F0.0
sg17
I356071
sg18
g12
sg19
I500000
sg20
I511734
sg21
F0.0
sg22
I1095573
sg23
F0.0
sg24
I511734
sg25
I239502
sg26
I1112087
sg27
g12
sg28
F0.0
sg29
F0.0
ssS'SKILLING JEFFREY K'
p291
(dp292
g3
I3627
sg4
I0
sg5
I29336
sg6
I01
sg7
F0.7509607433747185
sg8
I0
sg9
S'jeff.skilling@enron.com'
p293
sg11
I1920000
sg13
g12
sg14
I2042
sg15
I0
sg16
I108
sg17
I22122
sg18
g12
sg19
I5600000
sg20
I26093672
sg21
I88
sg22
I8653380
sg23
I30
sg24
I6843672
sg25
I1111258
sg26
I8682716
sg27
I19250000
sg28
F0.0242624758753791
sg29
F0.2777777777777778
ssS'BLAKE JR. NORMAN P'
p294
(dp295
g3
F0.0
sg4
I0
sg5
I1279
sg6
I00
sg7
F0.0
sg8
I-113784
sg9
g12
sg11
g12
sg13
g12
sg14
F0.0
sg15
I0
sg16
F0.0
sg17
g12
sg18
I113784
sg19
g12
sg20
g12
sg21
F0.0
sg22
I113784
sg23
F0.0
sg24
g12
sg25
g12
sg26
I1279
sg27
g12
sg28
F0.0
sg29
F0.0
ssS'SHERRICK JEFFREY B'
p296
(dp297
g3
I613
sg4
I0
sg5
I0
sg6
I00
sg7
F1.0
sg8
I0
sg9
S'jeffrey.sherrick@enron.com'
p298
sg11
g12
sg13
g12
sg14
I583
sg15
I0
sg16
I25
sg17
g12
sg18
g12
sg19
g12
sg20
I1832468
sg21
I39
sg22
F0.0
sg23
I18
sg24
I405999
sg25
g12
sg26
g12
sg27
I1426469
sg28
F0.0636215334420881
sg29
F0.72
ssS'PRENTICE JAMES'
p299
(dp300
g3
F0.0
sg4
I564348
sg5
I0
sg6
I00
sg7
F1.0
sg8
I0
sg9
S'james.prentice@enron.com'
p301
sg11
g12
sg13
g12
sg14
F0.0
sg15
I0
sg16
F0.0
sg17
g12
sg18
g12
sg19
g12
sg20
I1095040
sg21
F0.0
sg22
I0
sg23
F0.0
sg24
I208809
sg25
g12
sg26
I564348
sg27
I886231
sg28
F0.0
sg29
F0.0
ssS'GRAY RODNEY'
p302
(dp303
g3
F0.0
sg4
I93585
sg5
I0
sg6
I00
sg7
F0.0
sg8
I0
sg9
g12
sg11
I365625
sg13
g12
sg14
F0.0
sg15
I0
sg16
F0.0
sg17
I680833
sg18
g12
sg19
g12
sg20
g12
sg21
F0.0
sg22
I1053073
sg23
F0.0
sg24
g12
sg25
I6615
sg26
I1146658
sg27
g12
sg28
F0.0
sg29
F0.0
ssS'PICKERING MARK R'
p304
(dp305
g3
I898
sg4
I0
sg5
I31653
sg6
I00
sg7
F0.02927116843779699
sg8
I0
sg9
S'mark.pickering@enron.com'
p306
sg11
g12
sg13
g12
sg14
I728
sg15
I400000
sg16
I67
sg17
g12
sg18
g12
sg19
I300000
sg20
I28798
sg21
I7
sg22
I955037
sg23
I0
sg24
g12
sg25
I655037
sg26
I1386690
sg27
I28798
sg28
F0.0077951002227171495
sg29
F0.0
ssS'THE TRAVEL AGENCY IN THE PARK'
p307
(dp308
g3
F0.0
sg4
I0
sg5
I0
sg6
I00
sg7
F0.0
sg8
I0
sg9
g12
sg11
g12
sg13
g12
sg14
F0.0
sg15
I0
sg16
F0.0
sg17
I362096
sg18
g12
sg19
g12
sg20
g12
sg21
F0.0
sg22
I362096
sg23
F0.0
sg24
g12
sg25
g12
sg26
I362096
sg27
g12
sg28
F0.0
sg29
F0.0
ssS'NOLES JAMES L'
p309
(dp310
g3
F0.0
sg4
I774401
sg5
I0
sg6
I00
sg7
F1.0
sg8
I0
sg9
g12
sg11
g12
sg13
I-94556
sg14
F0.0
sg15
I0
sg16
F0.0
sg17
g12
sg18
g12
sg19
g12
sg20
I368705
sg21
F0.0
sg22
I0
sg23
F0.0
sg24
I463261
sg25
g12
sg26
I774401
sg27
g12
sg28
F0.0
sg29
F0.0
ssS'FOWLER PEGGY'
p311
(dp312
g3
I517
sg4
I0
sg5
I0
sg6
I00
sg7
F1.0
sg8
I0
sg9
S'kulvinder.fowler@enron.com'
p313
sg11
g12
sg13
g12
sg14
I10
sg15
I0
sg16
I36
sg17
g12
sg18
g12
sg19
g12
sg20
I1884748
sg21
I0
sg22
F0.0
sg23
I0
sg24
I560170
sg25
g12
sg26
g12
sg27
I1324578
sg28
F0.0
sg29
F0.0
ssS'WASAFF GEORGE'
p314
(dp315
g3
I400
sg4
I831299
sg5
I0
sg6
I00
sg7
F0.7233686078186382
sg8
I-583325
sg9
S'george.wasaff@enron.com'
p316
sg11
I200000
sg13
g12
sg14
I337
sg15
I0
sg16
I30
sg17
I1425
sg18
g12
sg19
I325000
sg20
I2056427
sg21
I22
sg22
I786421
sg23
I7
sg24
I388167
sg25
I259996
sg26
I1034395
sg27
I1668260
sg28
F0.055
sg29
F0.23333333333333334
ssS'WHITE JR THOMAS E'
p317
(dp318
g3
F0.0
sg4
I0
sg5
I81353
sg6
I00
sg7
F0.890981235713396
sg8
I0
sg9
S'thomas.white@enron.com'
p319
sg11
g12
sg13
g12
sg14
F0.0
sg15
I0
sg16
F0.0
sg17
I1085463
sg18
g12
sg19
I450000
sg20
I15144123
sg21
F0.0
sg22
I1853006
sg23
F0.0
sg24
I13847074
sg25
I317543
sg26
I1934359
sg27
I1297049
sg28
F0.0
sg29
F0.0
ssS'CHRISTODOULOU DIOMEDES'
p320
(dp321
g3
F0.0
sg4
I0
sg5
I0
sg6
I00
sg7
F1.0
sg8
I0
sg9
S'diomedes.christodoulou@enron.com'
p322
sg11
g12
sg13
g12
sg14
F0.0
sg15
I0
sg16
F0.0
sg17
g12
sg18
g12
sg19
g12
sg20
I6077885
sg21
F0.0
sg22
F0.0
sg23
F0.0
sg24
I950730
sg25
g12
sg26
g12
sg27
I5127155
sg28
F0.0
sg29
F0.0
ssS'ALLEN PHILLIP K'
p323
(dp324
g3
I2902
sg4
I2869717
sg5
I13868
sg6
I00
sg7
F0.2697580408060388
sg8
I-3081055
sg9
S'phillip.allen@enron.com'
p325
sg11
I304805
sg13
I-126027
sg14
I1407
sg15
I0
sg16
I2195
sg17
I152
sg18
g12
sg19
I4175000
sg20
I1729541
sg21
I47
sg22
I4681912
sg23
I65
sg24
I126027
sg25
I201955
sg26
I4484442
sg27
I1729541
sg28
F0.016195727084769126
sg29
F0.029612756264236904
ssS'SHARP VICTORIA T'
p326
(dp327
g3
I3136
sg4
I187469
sg5
I116337
sg6
I00
sg7
F0.2796720248171737
sg8
I0
sg9
S'vicki.sharp@enron.com'
p328
sg11
I422158
sg13
g12
sg14
I2477
sg15
I0
sg16
I136
sg17
I2401
sg18
g12
sg19
I600000
sg20
I494136
sg21
I24
sg22
I1272705
sg23
I6
sg24
I213063
sg25
I248146
sg26
I1576511
sg27
I281073
sg28
F0.007653061224489796
sg29
F0.04411764705882353
ssS'JAEDICKE ROBERT'
p329
(dp330
g3
F0.0
sg4
I0
sg5
I0
sg6
I00
sg7
F0.7987974098057354
sg8
I-25000
sg9
g12
sg11
g12
sg13
I-44093
sg14
F0.0
sg15
I0
sg16
F0.0
sg17
g12
sg18
I108750
sg19
g12
sg20
I431750
sg21
F0.0
sg22
I108750
sg23
F0.0
sg24
I44093
sg25
g12
sg26
I83750
sg27
I431750
sg28
F0.0
sg29
F0.0
ssS'WINOKUR JR. HERBERT S'
p331
(dp332
g3
F0.0
sg4
I0
sg5
I1413
sg6
I00
sg7
F0.0
sg8
I-25000
sg9
g12
sg11
g12
sg13
g12
sg14
F0.0
sg15
I0
sg16
F0.0
sg17
g12
sg18
I108579
sg19
g12
sg20
g12
sg21
F0.0
sg22
I108579
sg23
F0.0
sg24
g12
sg25
g12
sg26
I84992
sg27
g12
sg28
F0.0
sg29
F0.0
ssS'BROWN MICHAEL'
p333
(dp334
g3
I1486
sg4
I0
sg5
I49288
sg6
I00
sg7
g95
sg8
I0
sg9
S'michael.brown@enron.com'
p335
sg11
g12
sg13
g12
sg14
I761
sg15
I0
sg16
I41
sg17
g12
sg18
g12
sg19
g12
sg20
g12
sg21
I13
sg22
I0
sg23
I1
sg24
g12
sg25
g12
sg26
I49288
sg27
g12
sg28
F0.008748317631224764
sg29
F0.024390243902439025
ssS'BADUM JAMES P'
p336
(dp337
g3
F0.0
sg4
I178980
sg5
I3486
sg6
I00
sg7
F1.0
sg8
I0
sg9
g12
sg11
g12
sg13
g12
sg14
F0.0
sg15
I0
sg16
F0.0
sg17
g12
sg18
g12
sg19
g12
sg20
I257817
sg21
F0.0
sg22
I0
sg23
F0.0
sg24
g12
sg25
g12
sg26
I182466
sg27
I257817
sg28
F0.0
sg29
F0.0
ssS'HUGHES JAMES A'
p338
(dp339
g3
I719
sg4
I0
sg5
I0
sg6
I00
sg7
F1.0
sg8
I0
sg9
S'james.hughes@enron.com'
p340
sg11
g12
sg13
g12
sg14
I589
sg15
I0
sg16
I34
sg17
g12
sg18
g12
sg19
g12
sg20
I1118394
sg21
I35
sg22
F0.0
sg23
I5
sg24
I363428
sg25
g12
sg26
g12
sg27
I754966
sg28
F0.048678720445062586
sg29
F0.14705882352941177
ssS'REYNOLDS LAWRENCE'
p341
(dp342
g3
F0.0
sg4
I51365
sg5
I8409
sg6
I00
sg7
F0.8875873734808452
sg8
I-200000
sg9
g12
sg11
I156250
sg13
I-140264
sg14
F0.0
sg15
I0
sg16
F0.0
sg17
I202052
sg18
g12
sg19
I100000
sg20
I4221891
sg21
F0.0
sg22
I534701
sg23
F0.0
sg24
I201483
sg25
I76399
sg26
I394475
sg27
I4160672
sg28
F0.0
sg29
F0.0
ssS'DIMICHELE RICHARD G'
p343
(dp344
g3
F0.0
sg4
I0
sg5
I35812
sg6
I00
sg7
F0.7810035209928601
sg8
I0
sg9
S'richard.dimichele@enron.com'
p345
sg11
I694862
sg13
g12
sg14
F0.0
sg15
I0
sg16
F0.0
sg17
I374689
sg18
g12
sg19
I1000000
sg20
I8317782
sg21
F0.0
sg22
I2332339
sg23
F0.0
sg24
I126027
sg25
I262788
sg26
I2368151
sg27
I8191755
sg28
F0.0
sg29
F0.0
ssS'BHATNAGAR SANJAY'
p346
(dp347
g3
I523
sg4
I0
sg5
I137864
sg6
I00
sg7
F1.0
sg8
I0
sg9
S'sanjay.bhatnagar@enron.com'
p348
sg11
g95
sg13
I-2604490
sg14
I463
sg15
I0
sg16
I29
sg17
g95
sg18
g95
sg19
g95
sS'total_stock_value'
p349
I15456290
sg21
I0
sg22
I0
sg23
I1
sg24
I2604490
sg25
g95
sg26
I137864
sg27
I15456290
sg28
F0.0
sg29
F0.034482758620689655
ssS'CARTER REBECCA C'
p350
(dp351
g3
I312
sg4
I0
sg5
I0
sg6
I00
sg7
F0.0
sg8
I-159792
sg9
S'rebecca.carter@enron.com'
p352
sg11
I75000
sg13
I-307301
sg14
I196
sg15
I0
sg16
I15
sg17
I540
sg18
g12
sg19
I300000
sg20
g12
sg21
I29
sg22
I637349
sg23
I7
sg24
I307301
sg25
I261809
sg26
I477557
sg27
g12
sg28
F0.09294871794871795
sg29
F0.4666666666666667
ssS'BUCHANAN HAROLD G'
p353
(dp354
g3
I1088
sg4
I0
sg5
I600
sg6
I00
sg7
F0.4904444773178403
sg8
I0
sg9
S'john.buchanan@enron.com'
p355
sg11
I304805
sg13
g12
sg14
I23
sg15
I0
sg16
I125
sg17
I1215
sg18
g12
sg19
I500000
sg20
I1014505
sg21
I0
sg22
I1054037
sg23
I0
sg24
I189041
sg25
I248017
sg26
I1054637
sg27
I825464
sg28
F0.0
sg29
F0.0
ssS'YEAP SOON'
p356
(dp357
g3
F0.0
sg4
I0
sg5
I55097
sg6
I00
sg7
F1.0
sg8
I0
sg9
g12
sg11
g12
sg13
g12
sg14
F0.0
sg15
I0
sg16
F0.0
sg17
g12
sg18
g12
sg19
g12
sg20
I192758
sg21
F0.0
sg22
I0
sg23
F0.0
sg24
g12
sg25
g12
sg26
I55097
sg27
I192758
sg28
F0.0
sg29
F0.0
ssS'MURRAY JULIA H'
p358
(dp359
g3
I2192
sg4
I0
sg5
I57580
sg6
I00
sg7
F0.4418845108444428
sg8
I0
sg9
S'julia.murray@enron.com'
p360
sg11
I125000
sg13
g12
sg14
I395
sg15
I0
sg16
I45
sg17
I330
sg18
g12
sg19
I400000
sg20
I597461
sg21
I11
sg22
I754614
sg23
I2
sg24
I196983
sg25
I229284
sg26
I812194
sg27
I400478
sg28
F0.005018248175182482
sg29
F0.044444444444444446
ssS'GARLAND C KEVIN'
p361
(dp362
g3
I209
sg4
I0
sg5
I48405
sg6
I00
sg7
F0.3711981980078841
sg8
I0
sg9
S'kevin.garland@enron.com'
p363
sg11
I375304
sg13
g12
sg14
I178
sg15
I0
sg16
I44
sg17
I60814
sg18
g12
sg19
I850000
sg20
I896153
sg21
I10
sg22
I1518064
sg23
I27
sg24
I259907
sg25
I231946
sg26
I1566469
sg27
I636246
sg28
F0.04784688995215311
sg29
F0.6136363636363636
ssS'DODSON KEITH'
p364
(dp365
g3
I176
sg4
I0
sg5
I28164
sg6
I00
sg7
F0.0
sg8
I0
sg9
S'keith.dodson@enron.com'
p366
sg11
g12
sg13
g12
sg14
I114
sg15
I0
sg16
I14
sg17
I774
sg18
g12
sg19
I70000
sg20
g12
sg21
I10
sg22
I291777
sg23
I3
sg24
g12
sg25
I221003
sg26
I319941
sg27
g12
sg28
F0.056818181818181816
sg29
F0.21428571428571427
ssS'YEAGER F SCOTT'
p367
(dp368
g3
F0.0
sg4
I0
sg5
I53947
sg6
I01
sg7
F0.9748707890527779
sg8
I0
sg9
S'scott.yeager@enron.com'
p369
sg11
g12
sg13
g12
sg14
F0.0
sg15
I0
sg16
F0.0
sg17
I147950
sg18
g12
sg19
g12
sg20
I11884758
sg21
F0.0
sg22
I306353
sg23
F0.0
sg24
I3576206
sg25
I158403
sg26
I360300
sg27
I8308552
sg28
F0.0
sg29
F0.0
ssS'HIRKO JOSEPH'
p370
(dp371
g3
F0.0
sg4
I10259
sg5
I77978
sg6
I01
sg7
F0.9999071790625085
sg8
I0
sg9
S'joe.hirko@enron.com'
p372
sg11
g12
sg13
g12
sg14
F0.0
sg15
I0
sg16
F0.0
sg17
I2856
sg18
g12
sg19
g12
sg20
I30766064
sg21
F0.0
sg22
I2856
sg23
F0.0
sg24
g12
sg25
g12
sg26
I91093
sg27
I30766064
sg28
F0.0
sg29
F0.0
ssS'DIETRICH JANET R'
p373
(dp374
g3
I2572
sg4
I0
sg5
I3475
sg6
I00
sg7
F0.5700011246682535
sg8
I0
sg9
S'janet.dietrich@enron.com'
p375
sg11
I556416
sg13
g12
sg14
I1902
sg15
I0
sg16
I63
sg17
I473
sg18
g12
sg19
I600000
sg20
I1865087
sg21
I305
sg22
I1406989
sg23
I14
sg24
I315068
sg25
I250100
sg26
I1410464
sg27
I1550019
sg28
F0.11858475894245724
sg29
F0.2222222222222222
ssS'DERRICK JR. JAMES V'
p376
(dp377
g3
I2181
sg4
I0
sg5
I51124
sg6
I00
sg7
F0.8319616005245027
sg8
I-1284000
sg9
S'james.derrick@enron.com'
p378
sg11
I484000
sg13
I-1787380
sg14
I1401
sg15
I0
sg16
I909
sg17
I7482
sg18
g12
sg19
I800000
sg20
I8831913
sg21
I64
sg22
I1783857
sg23
I20
sg24
I1787380
sg25
I492375
sg26
I550981
sg27
I8831913
sg28
F0.029344337459880788
sg29
F0.022002200220022004
ssS'FREVERT MARK A'
p379
(dp380
g3
I3275
sg4
I6426990
sg5
I86987
sg6
I00
sg7
F0.5470788056263174
sg8
I-3367011
sg9
S'mark.frevert@enron.com'
p381
sg11
I1617011
sg13
g12
sg14
I2979
sg15
I2000000
sg16
I21
sg17
I7427621
sg18
g12
sg19
I2000000
sg20
I14622185
sg21
I242
sg22
I12105564
sg23
I6
sg24
I4188667
sg25
I1060932
sg26
I17252530
sg27
I10433518
sg28
F0.07389312977099237
sg29
F0.2857142857142857
ssS'PAI LOU L'
p382
(dp383
g3
F0.0
sg4
I0
sg5
I32047
sg6
I00
sg7
F0.8851200177663708
sg8
I0
sg9
S'lou.pai@enron.com'
p384
sg11
g12
sg13
g12
sg14
F0.0
sg15
I0
sg16
F0.0
sg17
I1829457
sg18
g12
sg19
I1000000
sg20
I23817930
sg21
F0.0
sg22
I3091336
sg23
F0.0
sg24
I8453763
sg25
I261879
sg26
I3123383
sg27
I15364167
sg28
F0.0
sg29
F0.0
ssS'BAY FRANKLIN R'
p385
(dp386
g3
F0.0
sg4
I260455
sg5
I129142
sg6
I00
sg7
F0.08966722352345202
sg8
I-201641
sg9
S'frank.bay@enron.com'
p387
sg11
g12
sg13
I-82782
sg14
F0.0
sg15
I0
sg16
F0.0
sg17
I69
sg18
g12
sg19
I400000
sg20
I63014
sg21
F0.0
sg22
I639740
sg23
F0.0
sg24
I145796
sg25
I239671
sg26
I827696
sg27
g12
sg28
F0.0
sg29
F0.0
ssS'HAYSLETT RODERICK J'
p388
(dp389
g3
I2649
sg4
I0
sg5
I0
sg6
I00
sg7
F1.0
sg8
I0
sg9
S'rod.hayslett@enron.com'
p390
sg11
g12
sg13
g12
sg14
I571
sg15
I0
sg16
I1061
sg17
g12
sg18
g12
sg19
g12
sg20
I346663
sg21
I35
sg22
F0.0
sg23
I38
sg24
I346663
sg25
g12
sg26
g12
sg27
g12
sg28
F0.01321253303133258
sg29
F0.03581526861451461
ssS'FUGH JOHN L'
p391
(dp392
g3
F0.0
sg4
I50591
sg5
I0
sg6
I00
sg7
F1.0
sg8
I0
sg9
g12
sg11
g12
sg13
g12
sg14
F0.0
sg15
I0
sg16
F0.0
sg17
g12
sg18
g12
sg19
g12
sg20
I176378
sg21
F0.0
sg22
I0
sg23
F0.0
sg24
g12
sg25
g12
sg26
I50591
sg27
I176378
sg28
F0.0
sg29
F0.0
ssS'FALLON JAMES B'
p393
(dp394
g3
I1755
sg4
I0
sg5
I95924
sg6
I00
sg7
F0.39446507289675053
sg8
I0
sg9
S'jim.fallon@enron.com'
p395
sg11
I374347
sg13
g12
sg14
I1604
sg15
I0
sg16
I75
sg17
I401481
sg18
g12
sg19
I2500000
sg20
I2332399
sg21
I42
sg22
I3580416
sg23
I37
sg24
I1392142
sg25
I304588
sg26
I3676340
sg27
I940257
sg28
F0.023931623931623933
sg29
F0.49333333333333335
ssS'KOENIG MARK E'
p396
(dp397
g3
I2374
sg4
I0
sg5
I127017
sg6
I01
sg7
F0.5679864775759742
sg8
I0
sg9
S'mark.koenig@enron.com'
p398
sg11
I300000
sg13
g12
sg14
I2271
sg15
I0
sg16
I61
sg17
I150458
sg18
g12
sg19
I700000
sg20
I1920055
sg21
I53
sg22
I1460404
sg23
I15
sg24
I1248318
sg25
I309946
sg26
I1587421
sg27
I671737
sg28
F0.02232518955349621
sg29
F0.2459016393442623
ssS'SAVAGE FRANK'
p399
(dp400
g3
F0.0
sg4
I0
sg5
I0
sg6
I00
sg7
F0.0
sg8
I-121284
sg9
g12
sg11
g12
sg13
g12
sg14
F0.0
sg15
I0
sg16
F0.0
sg17
g12
sg18
I125034
sg19
g12
sg20
g12
sg21
F0.0
sg22
I125034
sg23
F0.0
sg24
g12
sg25
g12
sg26
I3750
sg27
g12
sg28
F0.0
sg29
F0.0
ssS'IZZO LAWRENCE L'
p401
(dp402
g3
I496
sg4
I0
sg5
I28093
sg6
I00
sg7
F0.7488892403161662
sg8
I0
sg9
S'larry.izzo@enron.com'
p403
sg11
I312500
sg13
g12
sg14
I437
sg15
I0
sg16
I19
sg17
I1553729
sg18
g12
sg19
g12
sg20
I5819980
sg21
I28
sg22
I1951503
sg23
I5
sg24
I3654808
sg25
I85274
sg26
I1979596
sg27
I2165172
sg28
F0.056451612903225805
sg29
F0.2631578947368421
ssS'TILNEY ELIZABETH A'
p404
(dp405
g3
I460
sg4
I0
sg5
I0
sg6
I00
sg7
F0.5451936698196211
sg8
I-575000
sg9
S'elizabeth.tilney@enron.com'
p406
sg11
I275000
sg13
g12
sg14
I379
sg15
I0
sg16
I19
sg17
I152055
sg18
g12
sg19
I300000
sg20
I1168042
sg21
I10
sg22
I974393
sg23
I11
sg24
I576792
sg25
I247338
sg26
I399393
sg27
I591250
sg28
F0.021739130434782608
sg29
F0.5789473684210527
ssS'MARTIN AMANDA K'
p407
(dp408
g3
I1522
sg4
I85430
sg5
I8211
sg6
I00
sg7
F0.19938073983590213
sg8
I0
sg9
S'a..martin@enron.com'
p409
sg11
I5145434
sg13
g12
sg14
I477
sg15
I0
sg16
I230
sg17
I2818454
sg18
g12
sg19
g12
sg20
I2070306
sg21
I8
sg22
I8313375
sg23
I0
sg24
g12
sg25
I349487
sg26
I8407016
sg27
I2070306
sg28
F0.005256241787122208
sg29
F0.0
ssS'BUY RICHARD B'
p410
(dp411
g3
I3523
sg4
I649584
sg5
I0
sg6
I00
sg7
F0.5892566012881814
sg8
I-694862
sg9
S'rick.buy@enron.com'
p412
sg11
I769862
sg13
g12
sg14
I2333
sg15
I0
sg16
I1053
sg17
I400572
sg18
g12
sg19
I900000
sg20
I3444470
sg21
I156
sg22
I2400980
sg23
I71
sg24
I901657
sg25
I330546
sg26
I2355702
sg27
I2542813
sg28
F0.04428044280442804
sg29
F0.06742640075973409
ssS'GRAMM WENDY L'
p413
(dp414
g3
F0.0
sg4
I0
sg5
I0
sg6
I00
sg7
F0.0
sg8
I0
sg9
g12
sg11
g12
sg13
g12
sg14
F0.0
sg15
I0
sg16
F0.0
sg17
g12
sg18
I119292
sg19
g12
sg20
g12
sg21
F0.0
sg22
I119292
sg23
F0.0
sg24
g12
sg25
g12
sg26
I119292
sg27
g12
sg28
F0.0
sg29
F0.0
ssS'CAUSEY RICHARD A'
p415
(dp416
g3
I1892
sg4
I0
sg5
I30674
sg6
I01
sg7
F0.546881444465063
sg8
I-235000
sg9
S'richard.causey@enron.com'
p417
sg11
I350000
sg13
g12
sg14
I1585
sg15
I0
sg16
I49
sg17
I307895
sg18
g12
sg19
I1000000
sg20
I2502063
sg21
I58
sg22
I2073084
sg23
I12
sg24
I2502063
sg25
I415189
sg26
I1868758
sg27
g12
sg28
F0.0306553911205074
sg29
F0.24489795918367346
ssS'TAYLOR MITCHELL S'
p418
(dp419
g3
I533
sg4
I227449
sg5
I0
sg6
I00
sg7
F0.8123286702577858
sg8
I0
sg9
S'mitchell.taylor@enron.com'
p420
sg11
g12
sg13
g12
sg14
I300
sg15
I0
sg16
I29
sg17
g12
sg18
g12
sg19
I600000
sg20
I3745048
sg21
I0
sg22
I865214
sg23
I0
sg24
I563798
sg25
I265214
sg26
I1092663
sg27
I3181250
sg28
F0.0
sg29
F0.0
ssS'DONAHUE JR JEFFREY M'
p421
(dp422
g3
I865
sg4
I0
sg5
I96268
sg6
I00
sg7
F0.5003462193586611
sg8
I-300000
sg9
S'jeff.donahue@enron.com'
p423
sg11
g12
sg13
g12
sg14
I772
sg15
I0
sg16
I22
sg17
I891
sg18
g12
sg19
I800000
sg20
I1080988
sg21
I188
sg22
I1079492
sg23
I11
sg24
I315068
sg25
I278601
sg26
I875760
sg27
I765920
sg28
F0.21734104046242775
sg29
F0.5
ssS'GLISAN JR BEN F'
p424
(dp425
g3
I873
sg4
I0
sg5
I125978
sg6
I01
sg7
F0.40447057747816456
sg8
I0
sg9
S'ben.glisan@enron.com'
p426
sg11
I71023
sg13
g12
sg14
I874
sg15
I0
sg16
I16
sg17
I200308
sg18
g12
sg19
I600000
sg20
I778546
sg21
I52
sg22
I1146306
sg23
I6
sg24
I393818
sg25
I274975
sg26
I1272284
sg27
I384728
sg28
F0.05956471935853379
sg29
F0.375
ss.